; Function Attrs: mustprogress nofree norecurse nosync nounwind willreturn memory(none) uwtable
define dso_local range(i32 -1, 2) i32 @i128_ucomp(i64 %0, i64 %1, i64 %2, i64 %3) local_unnamed_addr #1 {
  %5 = icmp ugt i64 %0, %2
  br i1 %5, label %13, label %6

6:                                                ; preds = %4
  %7 = icmp ult i64 %0, %2
  br i1 %7, label %13, label %8

8:                                                ; preds = %6
  %9 = icmp eq i64 %1, %3
  br i1 %9, label %13, label %10

10:                                               ; preds = %8
  %11 = icmp ugt i64 %1, %3
  %12 = select i1 %11, i32 1, i32 -1
  br label %13

13:                                               ; preds = %8, %6, %4, %10
  %.0 = phi i32 [ %12, %10 ], [ 1, %4 ], [ -1, %6 ], [ 0, %8 ]
  ret i32 %.0
}